target datalayout = "e-m:e-p270:32:32-p271:32:32-p272:64:64-i64:64-i128:128-f80:128-n8:16:32:64-S128"
target triple = "x86_64-pc-linux-gnu"

%struct._asn1_ctx_t = type { i32, i32, i8, ptr, ptr, ptr, ptr, ptr, %struct.anon, %struct.anon.2, %struct.anon.3, ptr }
%struct.anon = type { i32, i8, i8, i8, ptr, ptr, i32, i32, ptr, ptr, ptr, %union.anon }
%union.anon = type { %struct.anon.0 }
%struct.anon.0 = type { ptr }
%struct.anon.2 = type { ptr, ptr, ptr }
%struct.anon.3 = type { i32, i8, ptr, i32, i32, ptr, ptr, ptr, %union.anon.4 }
%union.anon.4 = type { %struct.anon.5 }
%struct.anon.5 = type { ptr }

@ett_t124_ConnectGCCPDU = internal global i32 0, align 4
@hf_t124_connectGCCPDU = internal global i32 0, align 4
@ett_t124_connectGCCPDU = internal global i32 0, align 4

; Function Attrs: null_pointer_is_valid sspstrong uwtable
define hidden i32 @dissect_t124_ConnectGCCPDU(ptr noundef %0, i32 noundef %1, ptr noundef %2, ptr noundef %3, i32 noundef %4) #0 {
  %6 = alloca ptr, align 8
  %7 = alloca i32, align 4
  %8 = alloca ptr, align 8
  %9 = alloca ptr, align 8
  %10 = alloca i32, align 4
  store ptr %0, ptr %6, align 8
  store i32 %1, ptr %7, align 4
  store ptr %2, ptr %8, align 8
  store ptr %3, ptr %9, align 8
  store i32 %4, ptr %10, align 4
  %11 = load ptr, ptr %6, align 8
  %12 = load i32, ptr %7, align 4
  %13 = load ptr, ptr %8, align 8
  %14 = load ptr, ptr %9, align 8
  %15 = load i32, ptr %10, align 4
  %16 = load i32, ptr @ett_t124_ConnectGCCPDU, align 4
  %17 = call i32 @dissect_per_choice(ptr noundef %11, i32 noundef %12, ptr noundef %13, ptr noundef %14, i32 noundef %15, i32 noundef %16, ptr noundef @ConnectGCCPDU_choice, ptr noundef null)
  store i32 %17, ptr %7, align 4
  %18 = load i32, ptr %7, align 4
  ret i32 %18
}

; Function Attrs: null_pointer_is_valid sspstrong uwtable
define internal i32 @dissect_t124_T_connectPDU(ptr noundef %0, i32 noundef %1, ptr noundef %2, ptr noundef %3, i32 noundef %4) #0 {
  %6 = alloca ptr, align 8
  %7 = alloca i32, align 4
  %8 = alloca ptr, align 8
  %9 = alloca ptr, align 8
  %10 = alloca i32, align 4
  %11 = alloca ptr, align 8
  %12 = alloca ptr, align 8
  %13 = alloca i32, align 4
  store ptr %0, ptr %6, align 8
  store i32 %1, ptr %7, align 4
  store ptr %2, ptr %8, align 8
  store ptr %3, ptr %9, align 8
  store i32 %4, ptr %10, align 4
  call void @llvm.lifetime.start.p0(i64 8, ptr %11) #7
  store ptr null, ptr %11, align 8
  call void @llvm.lifetime.start.p0(i64 8, ptr %12) #7
  store ptr null, ptr %12, align 8
  call void @llvm.lifetime.start.p0(i64 4, ptr %13) #7
  store i32 0, ptr %13, align 4
  %14 = load i32, ptr %7, align 4
  store i32 %14, ptr %13, align 4
  %15 = load ptr, ptr %6, align 8
  %16 = load i32, ptr %7, align 4
  %17 = load ptr, ptr %8, align 8
  %18 = load ptr, ptr %9, align 8
  %19 = load i32, ptr %10, align 4
  %20 = call i32 @dissect_per_octet_string(ptr noundef %15, i32 noundef %16, ptr noundef %17, ptr noundef %18, i32 noundef %19, i32 noundef -1, i32 noundef -1, i1 noundef zeroext false, ptr noundef %11)
  store i32 %20, ptr %7, align 4
  %21 = load ptr, ptr %11, align 8
  %22 = icmp ne ptr %21, null
  br i1 %22, label %23, label %44

23:                                               ; preds = %5
  %24 = load ptr, ptr %11, align 8
  %25 = call i32 @tvb_reported_length(ptr noundef %24)
  %26 = icmp eq i32 %25, 42
  br i1 %26, label %27, label %33

27:                                               ; preds = %23
  %28 = load ptr, ptr %6, align 8
  %29 = load i32, ptr %13, align 4
  %30 = ashr i32 %29, 3
  %31 = add i32 %30, 1
  %32 = call ptr @tvb_new_subset_remaining(ptr noundef %28, i32 noundef %31)
  store ptr %32, ptr %11, align 8
  br label %33

33:                                               ; preds = %27, %23
  %34 = load ptr, ptr %8, align 8
  %35 = getelementptr inbounds nuw %struct._asn1_ctx_t, ptr %34, i32 0, i32 4
  %36 = load ptr, ptr %35, align 8
  %37 = load i32, ptr @ett_t124_connectGCCPDU, align 4
  %38 = call ptr @proto_item_add_subtree(ptr noundef %36, i32 noundef %37)
  store ptr %38, ptr %12, align 8
  %39 = load ptr, ptr %11, align 8
  %40 = load ptr, ptr %8, align 8
  %41 = load ptr, ptr %12, align 8
  %42 = load i32, ptr @hf_t124_connectGCCPDU, align 4
  %43 = call i32 @dissect_t124_ConnectGCCPDU(ptr noundef %39, i32 noundef 0, ptr noundef %40, ptr noundef %41, i32 noundef %42)
  br label %44

44:                                               ; preds = %33, %5
  %45 = load i32, ptr %7, align 4
  call void @llvm.lifetime.end.p0(i64 4, ptr %13) #7
  call void @llvm.lifetime.end.p0(i64 8, ptr %12) #7
  call void @llvm.lifetime.end.p0(i64 8, ptr %11) #7
  ret i32 %45
}