; Function Attrs: null_pointer_is_valid sspstrong uwtable
define internal i32 @dissect_t124_T_connectPDU(ptr noundef %0, i32 noundef %1, ptr noundef %2, ptr noundef %3, i32 noundef %4) #0 {
  %6 = alloca ptr, align 8
  call void @llvm.lifetime.start.p0(i64 8, ptr nonnull %6) #8
  store ptr null, ptr %6, align 8
  %7 = call i32 @dissect_per_octet_string(ptr noundef %0, i32 noundef %1, ptr noundef %2, ptr noundef %3, i32 noundef %4, i32 noundef -1, i32 noundef -1, i1 noundef zeroext false, ptr noundef nonnull %6)
  %8 = load ptr, ptr %6, align 8
  %.not = icmp eq ptr %8, null
  br i1 %.not, label %25, label %9

9:                                                ; preds = %5
  %10 = call i32 @tvb_reported_length(ptr noundef nonnull %8)
  %11 = icmp eq i32 %10, 42
  br i1 %11, label %12, label %16

12:                                               ; preds = %9
  %13 = ashr i32 %1, 3
  %14 = add nsw i32 %13, 1
  %15 = call ptr @tvb_new_subset_remaining(ptr noundef %0, i32 noundef %14)
  store ptr %15, ptr %6, align 8
  br label %16

16:                                               ; preds = %12, %9
  %17 = getelementptr inbounds nuw i8, ptr %2, i64 24
  %18 = load ptr, ptr %17, align 8
  %19 = load i32, ptr @ett_t124_connectGCCPDU, align 4
  %20 = call ptr @proto_item_add_subtree(ptr noundef %18, i32 noundef %19)
  %21 = load ptr, ptr %6, align 8
  %22 = load i32, ptr @hf_t124_connectGCCPDU, align 4
  %23 = load i32, ptr @ett_t124_ConnectGCCPDU, align 4
  %24 = call i32 @dissect_per_choice(ptr noundef %21, i32 noundef 0, ptr noundef %2, ptr noundef %20, i32 noundef %22, i32 noundef %23, ptr noundef nonnull @ConnectGCCPDU_choice, ptr noundef null)
  br label %25

25:                                               ; preds = %16, %5
  call void @llvm.lifetime.end.p0(i64 8, ptr nonnull %6) #8
  ret i32 %7
}